target datalayout = "e-m:e-p270:32:32-p271:32:32-p272:64:64-i64:64-i128:128-f80:128-n8:16:32:64-S128"
target triple = "x86_64-pc-linux-gnu"

%"class.ZXing::PerspectiveTransform" = type { double, double, double, double, double, double, double, double, double }

; Function Attrs: mustprogress nounwind uwtable
define linkonce_odr void @_ZN5ZXing20PerspectiveTransformC2Eddddddddd(ptr noundef nonnull align 8 dereferenceable(72) %0, double noundef %1, double noundef %2, double noundef %3, double noundef %4, double noundef %5, double noundef %6, double noundef %7, double noundef %8, double noundef %9) unnamed_addr #2 comdat align 2 {
  %11 = alloca ptr, align 8
  %12 = alloca double, align 8
  %13 = alloca double, align 8
  %14 = alloca double, align 8
  %15 = alloca double, align 8
  %16 = alloca double, align 8
  %17 = alloca double, align 8
  %18 = alloca double, align 8
  %19 = alloca double, align 8
  %20 = alloca double, align 8
  store ptr %0, ptr %11, align 8, !tbaa !3
  store double %1, ptr %12, align 8, !tbaa !19
  store double %2, ptr %13, align 8, !tbaa !19
  store double %3, ptr %14, align 8, !tbaa !19
  store double %4, ptr %15, align 8, !tbaa !19
  store double %5, ptr %16, align 8, !tbaa !19
  store double %6, ptr %17, align 8, !tbaa !19
  store double %7, ptr %18, align 8, !tbaa !19
  store double %8, ptr %19, align 8, !tbaa !19
  store double %9, ptr %20, align 8, !tbaa !19
  %21 = load ptr, ptr %11, align 8
  %22 = getelementptr inbounds nuw %"class.ZXing::PerspectiveTransform", ptr %21, i32 0, i32 0
  %23 = load double, ptr %12, align 8, !tbaa !19
  store double %23, ptr %22, align 8, !tbaa !18
  %24 = getelementptr inbounds nuw %"class.ZXing::PerspectiveTransform", ptr %21, i32 0, i32 1
  %25 = load double, ptr %15, align 8, !tbaa !19
  store double %25, ptr %24, align 8, !tbaa !17
  %26 = getelementptr inbounds nuw %"class.ZXing::PerspectiveTransform", ptr %21, i32 0, i32 2
  %27 = load double, ptr %18, align 8, !tbaa !19
  store double %27, ptr %26, align 8, !tbaa !16
  %28 = getelementptr inbounds nuw %"class.ZXing::PerspectiveTransform", ptr %21, i32 0, i32 3
  %29 = load double, ptr %13, align 8, !tbaa !19
  store double %29, ptr %28, align 8, !tbaa !15
  %30 = getelementptr inbounds nuw %"class.ZXing::PerspectiveTransform", ptr %21, i32 0, i32 4
  %31 = load double, ptr %16, align 8, !tbaa !19
  store double %31, ptr %30, align 8, !tbaa !8
  %32 = getelementptr inbounds nuw %"class.ZXing::PerspectiveTransform", ptr %21, i32 0, i32 5
  %33 = load double, ptr %19, align 8, !tbaa !19
  store double %33, ptr %32, align 8, !tbaa !12
  %34 = getelementptr inbounds nuw %"class.ZXing::PerspectiveTransform", ptr %21, i32 0, i32 6
  %35 = load double, ptr %14, align 8, !tbaa !19
  store double %35, ptr %34, align 8, !tbaa !14
  %36 = getelementptr inbounds nuw %"class.ZXing::PerspectiveTransform", ptr %21, i32 0, i32 7
  %37 = load double, ptr %17, align 8, !tbaa !19
  store double %37, ptr %36, align 8, !tbaa !13
  %38 = getelementptr inbounds nuw %"class.ZXing::PerspectiveTransform", ptr %21, i32 0, i32 8
  %39 = load double, ptr %20, align 8, !tbaa !19
  store double %39, ptr %38, align 8, !tbaa !11
  ret void
}

; Function Attrs: mustprogress uwtable
define void @_ZNK5ZXing20PerspectiveTransform7inverseEv(ptr dead_on_unwind noalias writable sret(%"class.ZXing::PerspectiveTransform") align 8 %0, ptr noundef nonnull align 8 dereferenceable(72) %1) #0 align 2 {
  %3 = alloca ptr, align 8
  store ptr %1, ptr %3, align 8, !tbaa !3
  %4 = load ptr, ptr %3, align 8
  %5 = getelementptr inbounds nuw %"class.ZXing::PerspectiveTransform", ptr %4, i32 0, i32 4
  %6 = load double, ptr %5, align 8, !tbaa !8
  %7 = getelementptr inbounds nuw %"class.ZXing::PerspectiveTransform", ptr %4, i32 0, i32 8
  %8 = load double, ptr %7, align 8, !tbaa !11
  %9 = getelementptr inbounds nuw %"class.ZXing::PerspectiveTransform", ptr %4, i32 0, i32 5
  %10 = load double, ptr %9, align 8, !tbaa !12
  %11 = getelementptr inbounds nuw %"class.ZXing::PerspectiveTransform", ptr %4, i32 0, i32 7
  %12 = load double, ptr %11, align 8, !tbaa !13
  %13 = fmul double %10, %12
  %14 = fneg double %13
  %15 = call double @llvm.fmuladd.f64(double %6, double %8, double %14)
  %16 = getelementptr inbounds nuw %"class.ZXing::PerspectiveTransform", ptr %4, i32 0, i32 5
  %17 = load double, ptr %16, align 8, !tbaa !12
  %18 = getelementptr inbounds nuw %"class.ZXing::PerspectiveTransform", ptr %4, i32 0, i32 6
  %19 = load double, ptr %18, align 8, !tbaa !14
  %20 = getelementptr inbounds nuw %"class.ZXing::PerspectiveTransform", ptr %4, i32 0, i32 3
  %21 = load double, ptr %20, align 8, !tbaa !15
  %22 = getelementptr inbounds nuw %"class.ZXing::PerspectiveTransform", ptr %4, i32 0, i32 8
  %23 = load double, ptr %22, align 8, !tbaa !11
  %24 = fmul double %21, %23
  %25 = fneg double %24
  %26 = call double @llvm.fmuladd.f64(double %17, double %19, double %25)
  %27 = getelementptr inbounds nuw %"class.ZXing::PerspectiveTransform", ptr %4, i32 0, i32 3
  %28 = load double, ptr %27, align 8, !tbaa !15
  %29 = getelementptr inbounds nuw %"class.ZXing::PerspectiveTransform", ptr %4, i32 0, i32 7
  %30 = load double, ptr %29, align 8, !tbaa !13
  %31 = getelementptr inbounds nuw %"class.ZXing::PerspectiveTransform", ptr %4, i32 0, i32 4
  %32 = load double, ptr %31, align 8, !tbaa !8
  %33 = getelementptr inbounds nuw %"class.ZXing::PerspectiveTransform", ptr %4, i32 0, i32 6
  %34 = load double, ptr %33, align 8, !tbaa !14
  %35 = fmul double %32, %34
  %36 = fneg double %35
  %37 = call double @llvm.fmuladd.f64(double %28, double %30, double %36)
  %38 = getelementptr inbounds nuw %"class.ZXing::PerspectiveTransform", ptr %4, i32 0, i32 2
  %39 = load double, ptr %38, align 8, !tbaa !16
  %40 = getelementptr inbounds nuw %"class.ZXing::PerspectiveTransform", ptr %4, i32 0, i32 7
  %41 = load double, ptr %40, align 8, !tbaa !13
  %42 = getelementptr inbounds nuw %"class.ZXing::PerspectiveTransform", ptr %4, i32 0, i32 1
  %43 = load double, ptr %42, align 8, !tbaa !17
  %44 = getelementptr inbounds nuw %"class.ZXing::PerspectiveTransform", ptr %4, i32 0, i32 8
  %45 = load double, ptr %44, align 8, !tbaa !11
  %46 = fmul double %43, %45
  %47 = fneg double %46
  %48 = call double @llvm.fmuladd.f64(double %39, double %41, double %47)
  %49 = getelementptr inbounds nuw %"class.ZXing::PerspectiveTransform", ptr %4, i32 0, i32 0
  %50 = load double, ptr %49, align 8, !tbaa !18
  %51 = getelementptr inbounds nuw %"class.ZXing::PerspectiveTransform", ptr %4, i32 0, i32 8
  %52 = load double, ptr %51, align 8, !tbaa !11
  %53 = getelementptr inbounds nuw %"class.ZXing::PerspectiveTransform", ptr %4, i32 0, i32 2
  %54 = load double, ptr %53, align 8, !tbaa !16
  %55 = getelementptr inbounds nuw %"class.ZXing::PerspectiveTransform", ptr %4, i32 0, i32 6
  %56 = load double, ptr %55, align 8, !tbaa !14
  %57 = fmul double %54, %56
  %58 = fneg double %57
  %59 = call double @llvm.fmuladd.f64(double %50, double %52, double %58)
  %60 = getelementptr inbounds nuw %"class.ZXing::PerspectiveTransform", ptr %4, i32 0, i32 1
  %61 = load double, ptr %60, align 8, !tbaa !17
  %62 = getelementptr inbounds nuw %"class.ZXing::PerspectiveTransform", ptr %4, i32 0, i32 6
  %63 = load double, ptr %62, align 8, !tbaa !14
  %64 = getelementptr inbounds nuw %"class.ZXing::PerspectiveTransform", ptr %4, i32 0, i32 0
  %65 = load double, ptr %64, align 8, !tbaa !18
  %66 = getelementptr inbounds nuw %"class.ZXing::PerspectiveTransform", ptr %4, i32 0, i32 7
  %67 = load double, ptr %66, align 8, !tbaa !13
  %68 = fmul double %65, %67
  %69 = fneg double %68
  %70 = call double @llvm.fmuladd.f64(double %61, double %63, double %69)
  %71 = getelementptr inbounds nuw %"class.ZXing::PerspectiveTransform", ptr %4, i32 0, i32 1
  %72 = load double, ptr %71, align 8, !tbaa !17
  %73 = getelementptr inbounds nuw %"class.ZXing::PerspectiveTransform", ptr %4, i32 0, i32 5
  %74 = load double, ptr %73, align 8, !tbaa !12
  %75 = getelementptr inbounds nuw %"class.ZXing::PerspectiveTransform", ptr %4, i32 0, i32 2
  %76 = load double, ptr %75, align 8, !tbaa !16
  %77 = getelementptr inbounds nuw %"class.ZXing::PerspectiveTransform", ptr %4, i32 0, i32 4
  %78 = load double, ptr %77, align 8, !tbaa !8
  %79 = fmul double %76, %78
  %80 = fneg double %79
  %81 = call double @llvm.fmuladd.f64(double %72, double %74, double %80)
  %82 = getelementptr inbounds nuw %"class.ZXing::PerspectiveTransform", ptr %4, i32 0, i32 2
  %83 = load double, ptr %82, align 8, !tbaa !16
  %84 = getelementptr inbounds nuw %"class.ZXing::PerspectiveTransform", ptr %4, i32 0, i32 3
  %85 = load double, ptr %84, align 8, !tbaa !15
  %86 = getelementptr inbounds nuw %"class.ZXing::PerspectiveTransform", ptr %4, i32 0, i32 0
  %87 = load double, ptr %86, align 8, !tbaa !18
  %88 = getelementptr inbounds nuw %"class.ZXing::PerspectiveTransform", ptr %4, i32 0, i32 5
  %89 = load double, ptr %88, align 8, !tbaa !12
  %90 = fmul double %87, %89
  %91 = fneg double %90
  %92 = call double @llvm.fmuladd.f64(double %83, double %85, double %91)
  %93 = getelementptr inbounds nuw %"class.ZXing::PerspectiveTransform", ptr %4, i32 0, i32 0
  %94 = load double, ptr %93, align 8, !tbaa !18
  %95 = getelementptr inbounds nuw %"class.ZXing::PerspectiveTransform", ptr %4, i32 0, i32 4
  %96 = load double, ptr %95, align 8, !tbaa !8
  %97 = getelementptr inbounds nuw %"class.ZXing::PerspectiveTransform", ptr %4, i32 0, i32 1
  %98 = load double, ptr %97, align 8, !tbaa !17
  %99 = getelementptr inbounds nuw %"class.ZXing::PerspectiveTransform", ptr %4, i32 0, i32 3
  %100 = load double, ptr %99, align 8, !tbaa !15
  %101 = fmul double %98, %100
  %102 = fneg double %101
  %103 = call double @llvm.fmuladd.f64(double %94, double %96, double %102)
  call void @_ZN5ZXing20PerspectiveTransformC2Eddddddddd(ptr noundef nonnull align 8 dereferenceable(72) %0, double noundef %15, double noundef %26, double noundef %37, double noundef %48, double noundef %59, double noundef %70, double noundef %81, double noundef %92, double noundef %103)
  ret void
}