; Function Attrs: mustprogress nofree norecurse nosync nounwind willreturn memory(argmem: readwrite) uwtable
define void @_ZNK5ZXing20PerspectiveTransform7inverseEv(ptr dead_on_unwind noalias writable writeonly sret(%"class.ZXing::PerspectiveTransform") align 8 captures(none) initializes((0, 72)) %0, ptr noundef nonnull readonly align 8 captures(none) dereferenceable(72) %1) local_unnamed_addr #0 align 2 {
  %3 = getelementptr inbounds nuw i8, ptr %1, i64 32
  %4 = load double, ptr %3, align 8, !tbaa !3
  %5 = getelementptr inbounds nuw i8, ptr %1, i64 64
  %6 = load double, ptr %5, align 8, !tbaa !8
  %7 = getelementptr inbounds nuw i8, ptr %1, i64 40
  %8 = load double, ptr %7, align 8, !tbaa !9
  %9 = getelementptr inbounds nuw i8, ptr %1, i64 56
  %10 = load double, ptr %9, align 8, !tbaa !10
  %11 = fneg double %10
  %12 = fmul double %8, %11
  %13 = tail call double @llvm.fmuladd.f64(double %4, double %6, double %12)
  %14 = getelementptr inbounds nuw i8, ptr %1, i64 48
  %15 = load double, ptr %14, align 8, !tbaa !11
  %16 = getelementptr inbounds nuw i8, ptr %1, i64 24
  %17 = load double, ptr %16, align 8, !tbaa !12
  %18 = fneg double %6
  %19 = fmul double %17, %18
  %20 = tail call double @llvm.fmuladd.f64(double %8, double %15, double %19)
  %21 = fneg double %15
  %22 = fmul double %4, %21
  %23 = tail call double @llvm.fmuladd.f64(double %17, double %10, double %22)
  %24 = getelementptr inbounds nuw i8, ptr %1, i64 16
  %25 = load double, ptr %24, align 8, !tbaa !13
  %26 = getelementptr inbounds nuw i8, ptr %1, i64 8
  %27 = load double, ptr %26, align 8, !tbaa !14
  %28 = fmul double %27, %18
  %29 = tail call double @llvm.fmuladd.f64(double %25, double %10, double %28)
  %30 = load double, ptr %1, align 8, !tbaa !15
  %31 = fmul double %25, %21
  %32 = tail call double @llvm.fmuladd.f64(double %30, double %6, double %31)
  %33 = fmul double %30, %11
  %34 = tail call double @llvm.fmuladd.f64(double %27, double %15, double %33)
  %35 = fneg double %4
  %36 = fmul double %25, %35
  %37 = tail call double @llvm.fmuladd.f64(double %27, double %8, double %36)
  %38 = fneg double %8
  %39 = fmul double %30, %38
  %40 = tail call double @llvm.fmuladd.f64(double %25, double %17, double %39)
  %41 = fneg double %17
  %42 = fmul double %27, %41
  %43 = tail call double @llvm.fmuladd.f64(double %30, double %4, double %42)
  store double %13, ptr %0, align 8, !tbaa !15
  %44 = getelementptr inbounds nuw i8, ptr %0, i64 8
  store double %29, ptr %44, align 8, !tbaa !14
  %45 = getelementptr inbounds nuw i8, ptr %0, i64 16
  store double %37, ptr %45, align 8, !tbaa !13
  %46 = getelementptr inbounds nuw i8, ptr %0, i64 24
  store double %20, ptr %46, align 8, !tbaa !12
  %47 = getelementptr inbounds nuw i8, ptr %0, i64 32
  store double %32, ptr %47, align 8, !tbaa !3
  %48 = getelementptr inbounds nuw i8, ptr %0, i64 40
  store double %40, ptr %48, align 8, !tbaa !9
  %49 = getelementptr inbounds nuw i8, ptr %0, i64 48
  store double %23, ptr %49, align 8, !tbaa !11
  %50 = getelementptr inbounds nuw i8, ptr %0, i64 56
  store double %34, ptr %50, align 8, !tbaa !10
  %51 = getelementptr inbounds nuw i8, ptr %0, i64 64
  store double %43, ptr %51, align 8, !tbaa !8
  ret void
}